target datalayout = "e-m:e-p270:32:32-p271:32:32-p272:64:64-i64:64-i128:128-f80:128-n8:16:32:64-S128"
target triple = "x86_64-pc-linux-gnu"

%struct.slurm_conf_t = type { i64, ptr, i16, ptr, ptr, ptr, ptr, ptr, i16, ptr, ptr, ptr, ptr, ptr, ptr, ptr, i16, ptr, ptr, ptr, ptr, i16, ptr, ptr, ptr, i64, ptr, ptr, ptr, ptr, i16, ptr, ptr, i16, i32, ptr, i32, ptr, i32, i32, ptr, ptr, i64, i64, ptr, i16, i16, ptr, i32, i32, ptr, i32, ptr, i32, i16, i16, i16, ptr, i16, i16, ptr, ptr, i32, i16, i16, ptr, i32, i16, ptr, ptr, ptr, ptr, i16, ptr, ptr, ptr, ptr, i32, ptr, ptr, ptr, ptr, i16, i16, ptr, i32, i32, i32, i16, i16, ptr, ptr, i16, ptr, ptr, i32, i32, i32, i32, i32, i64, i32, i32, i16, ptr, ptr, i32, ptr, ptr, ptr, i16, i32, ptr, ptr, i16, ptr, ptr, i32, i16, ptr, ptr, ptr, ptr, i32, i32, i16, i16, i32, ptr, i16, ptr, i32, i32, i32, i32, i32, i32, ptr, i16, ptr, ptr, i32, i16, ptr, i32, i16, i16, ptr, ptr, ptr, i16, ptr, ptr, ptr, ptr, i16, i16, ptr, i16, ptr, i16, ptr, i16, ptr, i16, ptr, ptr, ptr, ptr, i16, ptr, ptr, ptr, i32, ptr, i32, ptr, ptr, i16, ptr, ptr, i32, i16, ptr, ptr, i16, i16, ptr, i16, ptr, ptr, ptr, i32, ptr, i16, i16, ptr, ptr, ptr, ptr, ptr, ptr, ptr, ptr, i16, i32, i16, ptr, ptr, ptr, ptr, i32, ptr, ptr, ptr, i16, ptr, ptr, ptr, i16, ptr, i16, ptr, i16, i16, ptr }

@slurm_conf = external global %struct.slurm_conf_t, align 8
@.str = private unnamed_addr constant [10 x i8] c"rl_enable\00", align 1
@.str.1 = private unnamed_addr constant [15 x i8] c"rl_table_size=\00", align 1
@table_size = internal global i32 8192, align 4
@.str.2 = private unnamed_addr constant [16 x i8] c"rl_bucket_size=\00", align 1
@bucket_size = internal global i32 30, align 4
@.str.3 = private unnamed_addr constant [13 x i8] c"rl_log_freq=\00", align 1
@log_freq = internal global i32 0, align 4
@.str.4 = private unnamed_addr constant [16 x i8] c"rl_refill_rate=\00", align 1
@refill_rate = internal global i32 2, align 4
@.str.5 = private unnamed_addr constant [18 x i8] c"rl_refill_period=\00", align 1
@refill_period = internal global i32 1, align 4
@rate_limit_enabled = internal global i8 0, align 1
@.str.6 = private unnamed_addr constant [13 x i8] c"rate_limit.c\00", align 1
@__func__.rate_limit_init = private unnamed_addr constant [16 x i8] c"rate_limit_init\00", align 1
@user_buckets = internal global ptr null, align 8
@.str.7 = private unnamed_addr constant [26 x i8] c"RPC rate limiting enabled\00", align 1
@.str.8 = private unnamed_addr constant [77 x i8] c"%s: rl_table_size=%d,rl_bucket_size=%d,rl_refill_rate=%d,rl_refill_period=%d\00", align 1

; Function Attrs: inlinehint nounwind willreturn memory(read) uwtable
define available_externally i32 @atoi(ptr noundef nonnull %0) #3 {
  %2 = alloca ptr, align 8
  store ptr %0, ptr %2, align 8
  %3 = load ptr, ptr %2, align 8
  %4 = call i64 @strtol(ptr noundef %3, ptr noundef null, i32 noundef 10) #7
  %5 = trunc i64 %4 to i32
  ret i32 %5
}

; Function Attrs: nounwind uwtable
define dso_local void @rate_limit_init() #0 {
  %1 = alloca ptr, align 8
  %2 = alloca i32, align 4
  call void @llvm.lifetime.start.p0(i64 8, ptr %1) #7
  %3 = load ptr, ptr getelementptr inbounds nuw (%struct.slurm_conf_t, ptr @slurm_conf, i32 0, i32 187), align 8
  %4 = call ptr @xstrcasestr(ptr noundef %3, ptr noundef @.str)
  %5 = icmp ne ptr %4, null
  br i1 %5, label %7, label %6

6:                                                ; preds = %0
  store i32 1, ptr %2, align 4
  br label %75

7:                                                ; preds = %0
  %8 = load ptr, ptr getelementptr inbounds nuw (%struct.slurm_conf_t, ptr @slurm_conf, i32 0, i32 187), align 8
  %9 = call ptr @xstrcasestr(ptr noundef %8, ptr noundef @.str.1)
  store ptr %9, ptr %1, align 8
  %10 = icmp ne ptr %9, null
  br i1 %10, label %11, label %15

11:                                               ; preds = %7
  %12 = load ptr, ptr %1, align 8
  %13 = getelementptr inbounds i8, ptr %12, i64 14
  %14 = call i32 @atoi(ptr noundef %13) #8
  store i32 %14, ptr @table_size, align 4
  br label %15

15:                                               ; preds = %11, %7
  %16 = load ptr, ptr getelementptr inbounds nuw (%struct.slurm_conf_t, ptr @slurm_conf, i32 0, i32 187), align 8
  %17 = call ptr @xstrcasestr(ptr noundef %16, ptr noundef @.str.2)
  store ptr %17, ptr %1, align 8
  %18 = icmp ne ptr %17, null
  br i1 %18, label %19, label %23

19:                                               ; preds = %15
  %20 = load ptr, ptr %1, align 8
  %21 = getelementptr inbounds i8, ptr %20, i64 15
  %22 = call i32 @atoi(ptr noundef %21) #8
  store i32 %22, ptr @bucket_size, align 4
  br label %23

23:                                               ; preds = %19, %15
  %24 = load ptr, ptr getelementptr inbounds nuw (%struct.slurm_conf_t, ptr @slurm_conf, i32 0, i32 187), align 8
  %25 = call ptr @xstrcasestr(ptr noundef %24, ptr noundef @.str.3)
  store ptr %25, ptr %1, align 8
  %26 = icmp ne ptr %25, null
  br i1 %26, label %27, label %31

27:                                               ; preds = %23
  %28 = load ptr, ptr %1, align 8
  %29 = getelementptr inbounds i8, ptr %28, i64 12
  %30 = call i32 @atoi(ptr noundef %29) #8
  store i32 %30, ptr @log_freq, align 4
  br label %31

31:                                               ; preds = %27, %23
  %32 = load ptr, ptr getelementptr inbounds nuw (%struct.slurm_conf_t, ptr @slurm_conf, i32 0, i32 187), align 8
  %33 = call ptr @xstrcasestr(ptr noundef %32, ptr noundef @.str.4)
  store ptr %33, ptr %1, align 8
  %34 = icmp ne ptr %33, null
  br i1 %34, label %35, label %39

35:                                               ; preds = %31
  %36 = load ptr, ptr %1, align 8
  %37 = getelementptr inbounds i8, ptr %36, i64 15
  %38 = call i32 @atoi(ptr noundef %37) #8
  store i32 %38, ptr @refill_rate, align 4
  br label %39

39:                                               ; preds = %35, %31
  %40 = load ptr, ptr getelementptr inbounds nuw (%struct.slurm_conf_t, ptr @slurm_conf, i32 0, i32 187), align 8
  %41 = call ptr @xstrcasestr(ptr noundef %40, ptr noundef @.str.5)
  store ptr %41, ptr %1, align 8
  %42 = icmp ne ptr %41, null
  br i1 %42, label %43, label %47

43:                                               ; preds = %39
  %44 = load ptr, ptr %1, align 8
  %45 = getelementptr inbounds i8, ptr %44, i64 17
  %46 = call i32 @atoi(ptr noundef %45) #8
  store i32 %46, ptr @refill_period, align 4
  br label %47

47:                                               ; preds = %43, %39
  store i8 1, ptr @rate_limit_enabled, align 1
  %48 = load i32, ptr @table_size, align 4
  %49 = sext i32 %48 to i64
  %50 = call ptr @slurm_xcalloc(i64 noundef %49, i64 noundef 24, i1 noundef zeroext true, i1 noundef zeroext false, ptr noundef @.str.6, i32 noundef 91, ptr noundef @__func__.rate_limit_init)
  store ptr %50, ptr @user_buckets, align 8
  br label %51

51:                                               ; preds = %47
  br label %52

52:                                               ; preds = %51
  %53 = call i32 @get_log_level()
  %54 = icmp sge i32 %53, 3
  br i1 %54, label %55, label %56

55:                                               ; preds = %52
  call void (i32, ptr, ...) @log_var(i32 noundef 3, ptr noundef @.str.7)
  br label %56

56:                                               ; preds = %55, %52
  br label %57

57:                                               ; preds = %56
  br label %58

58:                                               ; preds = %57
  br label %59

59:                                               ; preds = %58
  br label %60

60:                                               ; preds = %59
  br label %61

61:                                               ; preds = %60
  br label %62

62:                                               ; preds = %61
  %63 = call i32 @get_log_level()
  %64 = icmp sge i32 %63, 3
  br i1 %64, label %65, label %70

65:                                               ; preds = %62
  %66 = load i32, ptr @table_size, align 4
  %67 = load i32, ptr @bucket_size, align 4
  %68 = load i32, ptr @refill_rate, align 4
  %69 = load i32, ptr @refill_period, align 4
  call void (i32, ptr, ...) @log_var(i32 noundef 3, ptr noundef @.str.8, ptr noundef @__func__.rate_limit_init, i32 noundef %66, i32 noundef %67, i32 noundef %68, i32 noundef %69)
  br label %70

70:                                               ; preds = %65, %62
  br label %71

71:                                               ; preds = %70
  br label %72

72:                                               ; preds = %71
  br label %73

73:                                               ; preds = %72
  br label %74

74:                                               ; preds = %73
  store i32 0, ptr %2, align 4
  br label %75

75:                                               ; preds = %74, %6
  call void @llvm.lifetime.end.p0(i64 8, ptr %1) #7
  %76 = load i32, ptr %2, align 4
  switch i32 %76, label %78 [
    i32 0, label %77
    i32 1, label %77
  ]

77:                                               ; preds = %75, %75
  ret void

78:                                               ; preds = %75
  unreachable
}