; Function Attrs: nounwind uwtable
define dso_local void @rate_limit_init() local_unnamed_addr #0 {
  %1 = load ptr, ptr getelementptr inbounds nuw (i8, ptr @slurm_conf, i64 1248), align 8
  %2 = tail call ptr @xstrcasestr(ptr noundef %1, ptr noundef nonnull @.str) #7
  %.not = icmp eq ptr %2, null
  br i1 %.not, label %53, label %3

3:                                                ; preds = %0
  %4 = load ptr, ptr getelementptr inbounds nuw (i8, ptr @slurm_conf, i64 1248), align 8
  %5 = tail call ptr @xstrcasestr(ptr noundef %4, ptr noundef nonnull @.str.1) #7
  %.not9 = icmp eq ptr %5, null
  br i1 %.not9, label %10, label %6

6:                                                ; preds = %3
  %7 = getelementptr inbounds nuw i8, ptr %5, i64 14
  %8 = tail call i64 @strtol(ptr noundef nonnull captures(none) %7, ptr noundef null, i32 noundef 10) #7
  %9 = trunc i64 %8 to i32
  store i32 %9, ptr @table_size, align 4
  br label %10

10:                                               ; preds = %6, %3
  %11 = load ptr, ptr getelementptr inbounds nuw (i8, ptr @slurm_conf, i64 1248), align 8
  %12 = tail call ptr @xstrcasestr(ptr noundef %11, ptr noundef nonnull @.str.2) #7
  %.not10 = icmp eq ptr %12, null
  br i1 %.not10, label %17, label %13

13:                                               ; preds = %10
  %14 = getelementptr inbounds nuw i8, ptr %12, i64 15
  %15 = tail call i64 @strtol(ptr noundef nonnull captures(none) %14, ptr noundef null, i32 noundef 10) #7
  %16 = trunc i64 %15 to i32
  store i32 %16, ptr @bucket_size, align 4
  br label %17

17:                                               ; preds = %13, %10
  %18 = load ptr, ptr getelementptr inbounds nuw (i8, ptr @slurm_conf, i64 1248), align 8
  %19 = tail call ptr @xstrcasestr(ptr noundef %18, ptr noundef nonnull @.str.3) #7
  %.not11 = icmp eq ptr %19, null
  br i1 %.not11, label %24, label %20

20:                                               ; preds = %17
  %21 = getelementptr inbounds nuw i8, ptr %19, i64 12
  %22 = tail call i64 @strtol(ptr noundef nonnull captures(none) %21, ptr noundef null, i32 noundef 10) #7
  %23 = trunc i64 %22 to i32
  store i32 %23, ptr @log_freq, align 4
  br label %24

24:                                               ; preds = %20, %17
  %25 = load ptr, ptr getelementptr inbounds nuw (i8, ptr @slurm_conf, i64 1248), align 8
  %26 = tail call ptr @xstrcasestr(ptr noundef %25, ptr noundef nonnull @.str.4) #7
  %.not12 = icmp eq ptr %26, null
  br i1 %.not12, label %31, label %27

27:                                               ; preds = %24
  %28 = getelementptr inbounds nuw i8, ptr %26, i64 15
  %29 = tail call i64 @strtol(ptr noundef nonnull captures(none) %28, ptr noundef null, i32 noundef 10) #7
  %30 = trunc i64 %29 to i32
  store i32 %30, ptr @refill_rate, align 4
  br label %31

31:                                               ; preds = %27, %24
  %32 = load ptr, ptr getelementptr inbounds nuw (i8, ptr @slurm_conf, i64 1248), align 8
  %33 = tail call ptr @xstrcasestr(ptr noundef %32, ptr noundef nonnull @.str.5) #7
  %.not13 = icmp eq ptr %33, null
  br i1 %.not13, label %38, label %34

34:                                               ; preds = %31
  %35 = getelementptr inbounds nuw i8, ptr %33, i64 17
  %36 = tail call i64 @strtol(ptr noundef nonnull captures(none) %35, ptr noundef null, i32 noundef 10) #7
  %37 = trunc i64 %36 to i32
  store i32 %37, ptr @refill_period, align 4
  br label %38

38:                                               ; preds = %34, %31
  store i1 true, ptr @rate_limit_enabled, align 1
  %39 = load i32, ptr @table_size, align 4
  %40 = sext i32 %39 to i64
  %41 = tail call ptr @slurm_xcalloc(i64 noundef %40, i64 noundef 24, i1 noundef zeroext true, i1 noundef zeroext false, ptr noundef nonnull @.str.6, i32 noundef 91, ptr noundef nonnull @__func__.rate_limit_init) #7
  store ptr %41, ptr @user_buckets, align 8
  %42 = tail call i32 @get_log_level() #7
  %43 = icmp sgt i32 %42, 2
  br i1 %43, label %44, label %45

44:                                               ; preds = %38
  tail call void (i32, ptr, ...) @log_var(i32 noundef 3, ptr noundef nonnull @.str.7) #7
  br label %45

45:                                               ; preds = %44, %38
  %46 = tail call i32 @get_log_level() #7
  %47 = icmp sgt i32 %46, 2
  br i1 %47, label %48, label %53

48:                                               ; preds = %45
  %49 = load i32, ptr @table_size, align 4
  %50 = load i32, ptr @bucket_size, align 4
  %51 = load i32, ptr @refill_rate, align 4
  %52 = load i32, ptr @refill_period, align 4
  tail call void (i32, ptr, ...) @log_var(i32 noundef 3, ptr noundef nonnull @.str.8, ptr noundef nonnull @__func__.rate_limit_init, i32 noundef %49, i32 noundef %50, i32 noundef %51, i32 noundef %52) #7
  br label %53

53:                                               ; preds = %45, %48, %0
  ret void
}